; Function Attrs: mustprogress uwtable
define dso_local void @_ZNSt3__14__fs10filesystem16__create_symlinkERKNS1_4pathES4_PNS_10error_codeE(ptr noundef nonnull align 8 dereferenceable(24) %0, ptr noundef nonnull align 8 dereferenceable(24) %1, ptr noundef %2) local_unnamed_addr #0 {
  %4 = alloca %"struct.std::__1::__fs::filesystem::detail::ErrorHandler.1", align 8
  %5 = alloca %"class.std::__1::error_code", align 8
  call void @llvm.lifetime.start.p0(i64 32, ptr nonnull %4) #28
  store ptr @.str.8, ptr %4, align 8, !tbaa !32
  %6 = getelementptr inbounds nuw i8, ptr %4, i64 8
  store ptr %2, ptr %6, align 8, !tbaa !34
  %7 = getelementptr inbounds nuw i8, ptr %4, i64 16
  store ptr %0, ptr %7, align 8, !tbaa !35
  %8 = getelementptr inbounds nuw i8, ptr %4, i64 24
  store ptr %1, ptr %8, align 8, !tbaa !36
  %.not.i = icmp eq ptr %2, null
  br i1 %.not.i, label %_ZNSt3__14__fs10filesystem6detail12ErrorHandlerIvEC2B8ne210000EPKcPNS_10error_codeEPKNS1_4pathESB_.exit, label %9

9:                                                ; preds = %3
  store i32 0, ptr %2, align 8, !tbaa !8
  %10 = tail call noundef nonnull align 8 dereferenceable(8) ptr @_ZNSt3__115system_categoryEv() #30
  %11 = getelementptr inbounds nuw i8, ptr %2, i64 8
  store ptr %10, ptr %11, align 8, !tbaa !13
  br label %_ZNSt3__14__fs10filesystem6detail12ErrorHandlerIvEC2B8ne210000EPKcPNS_10error_codeEPKNS1_4pathESB_.exit

_ZNSt3__14__fs10filesystem6detail12ErrorHandlerIvEC2B8ne210000EPKcPNS_10error_codeEPKNS1_4pathESB_.exit: ; preds = %3, %9
  %12 = load i8, ptr %0, align 8
  %13 = and i8 %12, 1
  %.not.i.i.i.i = icmp eq i8 %13, 0
  %14 = getelementptr inbounds nuw i8, ptr %0, i64 16
  %15 = load ptr, ptr %14, align 8
  %16 = getelementptr inbounds nuw i8, ptr %0, i64 1
  %17 = select i1 %.not.i.i.i.i, ptr %16, ptr %15
  %18 = load i8, ptr %1, align 8
  %19 = and i8 %18, 1
  %.not.i.i.i.i5 = icmp eq i8 %19, 0
  %20 = getelementptr inbounds nuw i8, ptr %1, i64 16
  %21 = load ptr, ptr %20, align 8
  %22 = getelementptr inbounds nuw i8, ptr %1, i64 1
  %23 = select i1 %.not.i.i.i.i5, ptr %22, ptr %21
  %24 = tail call noundef i32 @symlink(ptr noundef %17, ptr noundef %23) #28
  %25 = icmp eq i32 %24, -1
  br i1 %25, label %26, label %31

26:                                               ; preds = %_ZNSt3__14__fs10filesystem6detail12ErrorHandlerIvEC2B8ne210000EPKcPNS_10error_codeEPKNS1_4pathESB_.exit
  call void @llvm.lifetime.start.p0(i64 16, ptr nonnull %5) #28
  %27 = tail call ptr @__errno_location() #30
  %28 = load i32, ptr %27, align 4, !tbaa !26
  %29 = tail call noundef nonnull align 8 dereferenceable(8) ptr @_ZNSt3__116generic_categoryEv() #30
  store i32 %28, ptr %5, align 8
  %30 = getelementptr inbounds nuw i8, ptr %5, i64 8
  store ptr %29, ptr %30, align 8
  call void @_ZNKSt3__14__fs10filesystem6detail12ErrorHandlerIvE6reportB8ne210000ERKNS_10error_codeE(ptr noundef nonnull align 8 dereferenceable(32) %4, ptr noundef nonnull align 8 dereferenceable(16) %5)
  call void @llvm.lifetime.end.p0(i64 16, ptr nonnull %5) #28
  br label %31

31:                                               ; preds = %_ZNSt3__14__fs10filesystem6detail12ErrorHandlerIvEC2B8ne210000EPKcPNS_10error_codeEPKNS1_4pathESB_.exit, %26
  call void @llvm.lifetime.end.p0(i64 32, ptr nonnull %4) #28
  ret void
}